; Function Attrs: mustprogress uwtable
define internal noundef zeroext i1 @_ZN4Luau12_GLOBAL__N_115FindExprOrLocal5visitEPNS_12AstStatBlockE(ptr noundef nonnull align 8 dereferenceable(32) %0, ptr noundef readonly captures(none) %1) unnamed_addr #4 align 2 {
  %3 = getelementptr inbounds nuw i8, ptr %1, i64 32
  %4 = load ptr, ptr %3, align 8, !tbaa !83
  %5 = getelementptr inbounds nuw i8, ptr %1, i64 40
  %6 = load i64, ptr %5, align 8, !tbaa !86
  %7 = getelementptr inbounds nuw ptr, ptr %4, i64 %6
  %.not13 = icmp eq i64 %6, 0
  br i1 %.not13, label %._crit_edge, label %.lr.ph

.lr.ph:                                           ; preds = %2
  %8 = getelementptr inbounds nuw i8, ptr %0, i64 8
  %9 = getelementptr inbounds nuw i8, ptr %0, i64 12
  br label %10

10:                                               ; preds = %.lr.ph, %_ZNK4Luau8PositionleERKS0_.exit.thread
  %.014 = phi ptr [ %4, %.lr.ph ], [ %34, %_ZNK4Luau8PositionleERKS0_.exit.thread ]
  %11 = load ptr, ptr %.014, align 8, !tbaa !87
  %12 = getelementptr inbounds nuw i8, ptr %11, i64 20
  %13 = getelementptr inbounds nuw i8, ptr %11, i64 24
  %14 = load i32, ptr %13, align 4, !tbaa !29
  %15 = load i32, ptr %9, align 4, !tbaa !29
  %16 = icmp eq i32 %14, %15
  %17 = load i32, ptr %12, align 4
  %18 = load i32, ptr %8, align 8
  %19 = icmp eq i32 %17, %18
  %20 = select i1 %16, i1 %19, i1 false
  br i1 %20, label %_ZNK4Luau8PositionleERKS0_.exit.thread, label %_ZNK4Luau8PositionleERKS0_.exit

_ZNK4Luau8PositionleERKS0_.exit:                  ; preds = %10
  %21 = icmp ult i32 %14, %15
  %22 = icmp ult i32 %17, %18
  %.0.i.i = select i1 %19, i1 %21, i1 %22
  br i1 %.0.i.i, label %_ZNK4Luau8PositionleERKS0_.exit.thread, label %23

23:                                               ; preds = %_ZNK4Luau8PositionleERKS0_.exit
  %24 = getelementptr inbounds nuw i8, ptr %11, i64 12
  %25 = load i32, ptr %24, align 4, !tbaa !80
  %26 = icmp eq i32 %25, %18
  %27 = getelementptr inbounds nuw i8, ptr %11, i64 16
  %28 = load i32, ptr %27, align 4
  %29 = icmp ugt i32 %28, %15
  %30 = icmp ugt i32 %25, %18
  %.0.i = select i1 %26, i1 %29, i1 %30
  br i1 %.0.i, label %._crit_edge, label %31

31:                                               ; preds = %23
  %32 = load ptr, ptr %11, align 8, !tbaa !8
  %33 = load ptr, ptr %32, align 8
  tail call void %33(ptr noundef nonnull align 8 dereferenceable(28) %11, ptr noundef nonnull %0)
  br label %_ZNK4Luau8PositionleERKS0_.exit.thread

_ZNK4Luau8PositionleERKS0_.exit.thread:           ; preds = %10, %31, %_ZNK4Luau8PositionleERKS0_.exit
  %34 = getelementptr inbounds nuw i8, ptr %.014, i64 8
  %.not = icmp eq ptr %34, %7
  br i1 %.not, label %._crit_edge, label %10

._crit_edge:                                      ; preds = %_ZNK4Luau8PositionleERKS0_.exit.thread, %23, %2
  ret i1 false
}